; Function Attrs: mustprogress nounwind uwtable
define dso_local void @_ZN21cmExportFileGeneratorC2Ev(ptr noundef nonnull align 8 dereferenceable(341) %0) unnamed_addr #3 align 2 personality ptr @__gxx_personality_v0 {
  store ptr getelementptr inbounds ({ [26 x ptr] }, ptr @_ZTV21cmExportFileGenerator, i64 0, i32 0, i64 2), ptr %0, align 8
  %2 = getelementptr inbounds i8, ptr %0, i64 8
  tail call void @_ZNSt7__cxx1112basic_stringIcSt11char_traitsIcESaIcEEC1Ev(ptr noundef nonnull align 8 dereferenceable(32) %2) #23
  %3 = getelementptr inbounds i8, ptr %0, i64 48
  tail call void @llvm.memset.p0.i64(ptr noundef nonnull align 8 dereferenceable(24) %3, i8 0, i64 24, i1 false)
  %4 = getelementptr inbounds i8, ptr %0, i64 72
  tail call void @_ZNSt7__cxx1112basic_stringIcSt11char_traitsIcESaIcEEC1Ev(ptr noundef nonnull align 8 dereferenceable(32) %4) #23
  %5 = getelementptr inbounds i8, ptr %0, i64 104
  tail call void @_ZNSt7__cxx1112basic_stringIcSt11char_traitsIcESaIcEEC1Ev(ptr noundef nonnull align 8 dereferenceable(32) %5) #23
  %6 = getelementptr inbounds i8, ptr %0, i64 136
  tail call void @_ZNSt7__cxx1112basic_stringIcSt11char_traitsIcESaIcEEC1Ev(ptr noundef nonnull align 8 dereferenceable(32) %6) #23
  %7 = getelementptr inbounds i8, ptr %0, i64 168
  tail call void @_ZNSt7__cxx1112basic_stringIcSt11char_traitsIcESaIcEEC1Ev(ptr noundef nonnull align 8 dereferenceable(32) %7) #23
  %8 = getelementptr inbounds i8, ptr %0, i64 216
  store i32 0, ptr %8, align 8
  %9 = getelementptr inbounds i8, ptr %0, i64 224
  store ptr null, ptr %9, align 8
  %10 = getelementptr inbounds i8, ptr %0, i64 232
  store ptr %8, ptr %10, align 8
  %11 = getelementptr inbounds i8, ptr %0, i64 240
  store ptr %8, ptr %11, align 8
  %12 = getelementptr inbounds i8, ptr %0, i64 248
  %13 = getelementptr inbounds i8, ptr %0, i64 288
  store i32 0, ptr %13, align 8
  %14 = getelementptr inbounds i8, ptr %0, i64 296
  store ptr null, ptr %14, align 8
  %15 = getelementptr inbounds i8, ptr %0, i64 304
  tail call void @llvm.memset.p0.i64(ptr noundef nonnull align 8 dereferenceable(32) %12, i8 0, i64 32, i1 false)
  store ptr %13, ptr %15, align 8
  %16 = getelementptr inbounds i8, ptr %0, i64 312
  store ptr %13, ptr %16, align 8
  %17 = getelementptr inbounds i8, ptr %0, i64 320
  store i64 0, ptr %17, align 8
  %18 = getelementptr inbounds i8, ptr %0, i64 328
  store i32 2, ptr %18, align 8
  %19 = getelementptr inbounds i8, ptr %0, i64 332
  store i32 8, ptr %19, align 4
  %20 = getelementptr inbounds i8, ptr %0, i64 336
  store i32 3, ptr %20, align 8
  %21 = getelementptr inbounds i8, ptr %0, i64 340
  store i8 0, ptr %21, align 4
  %22 = getelementptr inbounds i8, ptr %0, i64 200
  store i8 0, ptr %22, align 8
  %23 = getelementptr inbounds i8, ptr %0, i64 40
  store i8 0, ptr %23, align 8
  ret void
}